; Function Attrs: mustprogress uwtable
define dso_local void @_ZN5vcpkg30FullyBufferedDiagnosticContext8statuslnEONS_11MessageLineE(ptr noundef nonnull align 8 dereferenceable(32) %0, ptr noundef nonnull align 8 dereferenceable(24) %1) unnamed_addr #0 align 2 {
  %3 = getelementptr inbounds nuw i8, ptr %0, i64 16
  %4 = load ptr, ptr %3, align 8, !tbaa !72
  %5 = getelementptr inbounds nuw i8, ptr %0, i64 24
  %6 = load ptr, ptr %5, align 8, !tbaa !75
  %.not.i = icmp eq ptr %4, %6
  br i1 %.not.i, label %17, label %7

7:                                                ; preds = %2
  %8 = load ptr, ptr %1, align 8, !tbaa !42
  store ptr %8, ptr %4, align 8, !tbaa !42
  %9 = getelementptr inbounds nuw i8, ptr %4, i64 8
  %10 = getelementptr inbounds nuw i8, ptr %1, i64 8
  %11 = load ptr, ptr %10, align 8, !tbaa !45
  store ptr %11, ptr %9, align 8, !tbaa !45
  %12 = getelementptr inbounds nuw i8, ptr %4, i64 16
  %13 = getelementptr inbounds nuw i8, ptr %1, i64 16
  %14 = load ptr, ptr %13, align 8, !tbaa !48
  store ptr %14, ptr %12, align 8, !tbaa !48
  tail call void @llvm.memset.p0.i64(ptr noundef nonnull align 8 dereferenceable(24) %1, i8 0, i64 24, i1 false)
  %15 = load ptr, ptr %3, align 8, !tbaa !72
  %16 = getelementptr inbounds nuw i8, ptr %15, i64 24
  store ptr %16, ptr %3, align 8, !tbaa !72
  br label %_ZNSt6vectorIN5vcpkg11MessageLineESaIS1_EE12emplace_backIJS1_EEERS1_DpOT_.exit

17:                                               ; preds = %2
  %18 = getelementptr inbounds nuw i8, ptr %0, i64 8
  tail call void @_ZNSt6vectorIN5vcpkg11MessageLineESaIS1_EE17_M_realloc_insertIJS1_EEEvN9__gnu_cxx17__normal_iteratorIPS1_S3_EEDpOT_(ptr noundef nonnull align 8 dereferenceable(24) %18, ptr %4, ptr noundef nonnull align 8 dereferenceable(24) %1)
  br label %_ZNSt6vectorIN5vcpkg11MessageLineESaIS1_EE12emplace_backIJS1_EEERS1_DpOT_.exit

_ZNSt6vectorIN5vcpkg11MessageLineESaIS1_EE12emplace_backIJS1_EEERS1_DpOT_.exit: ; preds = %7, %17
  ret void
}